target datalayout = "e-m:e-p270:32:32-p271:32:32-p272:64:64-i64:64-i128:128-f80:128-n8:16:32:64-S128"
target triple = "x86_64-pc-linux-gnu"

%struct.BiquadsContext = type { ptr, i32, i32, i32, i32, i32, i32, i32, i32, double, double, double, double, ptr, %struct.AVChannelLayout, i32, i32, [3 x double], [3 x double], [3 x float], [3 x float], [3 x double], [3 x double], [3 x ptr], ptr, [2 x ptr], i32, i64, i32, ptr }
%struct.AVChannelLayout = type { i32, i32, %union.anon.1, ptr }
%union.anon.1 = type { i64 }

; Function Attrs: nounwind uwtable
define internal void @biquad_tdi_s32(ptr noundef %0, ptr noundef %1, ptr noundef %2, i32 noundef %3, ptr noundef %4, ptr noundef %5, i32 noundef %6) #1 {
  %8 = alloca ptr, align 8
  %9 = alloca ptr, align 8
  %10 = alloca ptr, align 8
  %11 = alloca i32, align 4
  %12 = alloca ptr, align 8
  %13 = alloca ptr, align 8
  %14 = alloca i32, align 4
  %15 = alloca ptr, align 8
  %16 = alloca ptr, align 8
  %17 = alloca ptr, align 8
  %18 = alloca ptr, align 8
  %19 = alloca ptr, align 8
  %20 = alloca double, align 8
  %21 = alloca double, align 8
  %22 = alloca double, align 8
  %23 = alloca double, align 8
  %24 = alloca double, align 8
  %25 = alloca double, align 8
  %26 = alloca double, align 8
  %27 = alloca double, align 8
  %28 = alloca double, align 8
  %29 = alloca double, align 8
  %30 = alloca double, align 8
  %31 = alloca double, align 8
  %32 = alloca double, align 8
  %33 = alloca i32, align 4
  %34 = alloca double, align 8
  %35 = alloca double, align 8
  %36 = alloca double, align 8
  %37 = alloca double, align 8
  store ptr %0, ptr %8, align 8, !tbaa !22
  store ptr %1, ptr %9, align 8, !tbaa !36
  store ptr %2, ptr %10, align 8, !tbaa !36
  store i32 %3, ptr %11, align 4, !tbaa !31
  store ptr %4, ptr %12, align 8, !tbaa !36
  store ptr %5, ptr %13, align 8, !tbaa !82
  store i32 %6, ptr %14, align 4, !tbaa !31
  call void @llvm.lifetime.start.p0(i64 8, ptr %15) #11
  %38 = load ptr, ptr %9, align 8, !tbaa !36
  store ptr %38, ptr %15, align 8, !tbaa !82
  call void @llvm.lifetime.start.p0(i64 8, ptr %16) #11
  %39 = load ptr, ptr %10, align 8, !tbaa !36
  store ptr %39, ptr %16, align 8, !tbaa !82
  call void @llvm.lifetime.start.p0(i64 8, ptr %17) #11
  %40 = load ptr, ptr %12, align 8, !tbaa !36
  store ptr %40, ptr %17, align 8, !tbaa !91
  call void @llvm.lifetime.start.p0(i64 8, ptr %18) #11
  %41 = load ptr, ptr %8, align 8, !tbaa !22
  %42 = getelementptr inbounds nuw %struct.BiquadsContext, ptr %41, i32 0, i32 17
  %43 = getelementptr inbounds [3 x double], ptr %42, i64 0, i64 0
  store ptr %43, ptr %18, align 8, !tbaa !91
  call void @llvm.lifetime.start.p0(i64 8, ptr %19) #11
  %44 = load ptr, ptr %8, align 8, !tbaa !22
  %45 = getelementptr inbounds nuw %struct.BiquadsContext, ptr %44, i32 0, i32 18
  %46 = getelementptr inbounds [3 x double], ptr %45, i64 0, i64 0
  store ptr %46, ptr %19, align 8, !tbaa !91
  call void @llvm.lifetime.start.p0(i64 8, ptr %20) #11
  %47 = load ptr, ptr %18, align 8, !tbaa !91
  %48 = getelementptr inbounds double, ptr %47, i64 1
  %49 = load double, ptr %48, align 8, !tbaa !55
  %50 = fneg nsz double %49
  store double %50, ptr %20, align 8, !tbaa !55
  call void @llvm.lifetime.start.p0(i64 8, ptr %21) #11
  %51 = load ptr, ptr %18, align 8, !tbaa !91
  %52 = getelementptr inbounds double, ptr %51, i64 2
  %53 = load double, ptr %52, align 8, !tbaa !55
  %54 = fneg nsz double %53
  store double %54, ptr %21, align 8, !tbaa !55
  call void @llvm.lifetime.start.p0(i64 8, ptr %22) #11
  %55 = load ptr, ptr %19, align 8, !tbaa !91
  %56 = getelementptr inbounds double, ptr %55, i64 0
  %57 = load double, ptr %56, align 8, !tbaa !55
  store double %57, ptr %22, align 8, !tbaa !55
  call void @llvm.lifetime.start.p0(i64 8, ptr %23) #11
  %58 = load ptr, ptr %19, align 8, !tbaa !91
  %59 = getelementptr inbounds double, ptr %58, i64 1
  %60 = load double, ptr %59, align 8, !tbaa !55
  store double %60, ptr %23, align 8, !tbaa !55
  call void @llvm.lifetime.start.p0(i64 8, ptr %24) #11
  %61 = load ptr, ptr %19, align 8, !tbaa !91
  %62 = getelementptr inbounds double, ptr %61, i64 2
  %63 = load double, ptr %62, align 8, !tbaa !55
  store double %63, ptr %24, align 8, !tbaa !55
  call void @llvm.lifetime.start.p0(i64 8, ptr %25) #11
  %64 = load ptr, ptr %17, align 8, !tbaa !91
  %65 = getelementptr inbounds double, ptr %64, i64 0
  %66 = load double, ptr %65, align 8, !tbaa !55
  store double %66, ptr %25, align 8, !tbaa !55
  call void @llvm.lifetime.start.p0(i64 8, ptr %26) #11
  %67 = load ptr, ptr %17, align 8, !tbaa !91
  %68 = getelementptr inbounds double, ptr %67, i64 1
  %69 = load double, ptr %68, align 8, !tbaa !55
  store double %69, ptr %26, align 8, !tbaa !55
  call void @llvm.lifetime.start.p0(i64 8, ptr %27) #11
  %70 = load ptr, ptr %17, align 8, !tbaa !91
  %71 = getelementptr inbounds double, ptr %70, i64 2
  %72 = load double, ptr %71, align 8, !tbaa !55
  store double %72, ptr %27, align 8, !tbaa !55
  call void @llvm.lifetime.start.p0(i64 8, ptr %28) #11
  %73 = load ptr, ptr %17, align 8, !tbaa !91
  %74 = getelementptr inbounds double, ptr %73, i64 3
  %75 = load double, ptr %74, align 8, !tbaa !55
  store double %75, ptr %28, align 8, !tbaa !55
  call void @llvm.lifetime.start.p0(i64 8, ptr %29) #11
  %76 = load ptr, ptr %8, align 8, !tbaa !22
  %77 = getelementptr inbounds nuw %struct.BiquadsContext, ptr %76, i32 0, i32 12
  %78 = load double, ptr %77, align 8, !tbaa !87
  store double %78, ptr %29, align 8, !tbaa !55
  call void @llvm.lifetime.start.p0(i64 8, ptr %30) #11
  %79 = load double, ptr %29, align 8, !tbaa !55
  %80 = fsub nsz double 1.000000e+00, %79
  store double %80, ptr %30, align 8, !tbaa !55
  call void @llvm.lifetime.start.p0(i64 8, ptr %31) #11
  call void @llvm.lifetime.start.p0(i64 8, ptr %32) #11
  call void @llvm.lifetime.start.p0(i64 4, ptr %33) #11
  store i32 0, ptr %33, align 4, !tbaa !31
  br label %81

81:                                               ; preds = %164, %7
  %82 = load i32, ptr %33, align 4, !tbaa !31
  %83 = load i32, ptr %11, align 4, !tbaa !31
  %84 = icmp slt i32 %82, %83
  br i1 %84, label %86, label %85

85:                                               ; preds = %81
  call void @llvm.lifetime.end.p0(i64 4, ptr %33) #11
  br label %167

86:                                               ; preds = %81
  call void @llvm.lifetime.start.p0(i64 8, ptr %34) #11
  call void @llvm.lifetime.start.p0(i64 8, ptr %35) #11
  call void @llvm.lifetime.start.p0(i64 8, ptr %36) #11
  call void @llvm.lifetime.start.p0(i64 8, ptr %37) #11
  %87 = load ptr, ptr %15, align 8, !tbaa !82
  %88 = load i32, ptr %33, align 4, !tbaa !31
  %89 = sext i32 %88 to i64
  %90 = getelementptr inbounds i32, ptr %87, i64 %89
  %91 = load i32, ptr %90, align 4, !tbaa !31
  %92 = sitofp i32 %91 to double
  %93 = load double, ptr %25, align 8, !tbaa !55
  %94 = fadd nsz double %92, %93
  store double %94, ptr %31, align 8, !tbaa !55
  %95 = load double, ptr %31, align 8, !tbaa !55
  %96 = load double, ptr %20, align 8, !tbaa !55
  %97 = load double, ptr %26, align 8, !tbaa !55
  %98 = call nsz double @llvm.fmuladd.f64(double %95, double %96, double %97)
  store double %98, ptr %34, align 8, !tbaa !55
  %99 = load double, ptr %31, align 8, !tbaa !55
  %100 = load double, ptr %21, align 8, !tbaa !55
  %101 = fmul nsz double %99, %100
  store double %101, ptr %35, align 8, !tbaa !55
  %102 = load double, ptr %31, align 8, !tbaa !55
  %103 = load double, ptr %23, align 8, !tbaa !55
  %104 = load double, ptr %28, align 8, !tbaa !55
  %105 = call nsz double @llvm.fmuladd.f64(double %102, double %103, double %104)
  store double %105, ptr %36, align 8, !tbaa !55
  %106 = load double, ptr %31, align 8, !tbaa !55
  %107 = load double, ptr %24, align 8, !tbaa !55
  %108 = fmul nsz double %106, %107
  store double %108, ptr %37, align 8, !tbaa !55
  %109 = load double, ptr %22, align 8, !tbaa !55
  %110 = load double, ptr %31, align 8, !tbaa !55
  %111 = load double, ptr %27, align 8, !tbaa !55
  %112 = call nsz double @llvm.fmuladd.f64(double %109, double %110, double %111)
  store double %112, ptr %32, align 8, !tbaa !55
  %113 = load double, ptr %32, align 8, !tbaa !55
  %114 = load double, ptr %29, align 8, !tbaa !55
  %115 = load double, ptr %31, align 8, !tbaa !55
  %116 = load double, ptr %30, align 8, !tbaa !55
  %117 = fmul nsz double %115, %116
  %118 = call nsz double @llvm.fmuladd.f64(double %113, double %114, double %117)
  store double %118, ptr %32, align 8, !tbaa !55
  %119 = load double, ptr %34, align 8, !tbaa !55
  store double %119, ptr %25, align 8, !tbaa !55
  %120 = load double, ptr %35, align 8, !tbaa !55
  store double %120, ptr %26, align 8, !tbaa !55
  %121 = load double, ptr %36, align 8, !tbaa !55
  store double %121, ptr %27, align 8, !tbaa !55
  %122 = load double, ptr %37, align 8, !tbaa !55
  store double %122, ptr %28, align 8, !tbaa !55
  %123 = load i32, ptr %14, align 4, !tbaa !31
  %124 = icmp ne i32 %123, 0
  br i1 %124, label %125, label %132

125:                                              ; preds = %86
  %126 = load double, ptr %31, align 8, !tbaa !55
  %127 = fptosi double %126 to i32
  %128 = load ptr, ptr %16, align 8, !tbaa !82
  %129 = load i32, ptr %33, align 4, !tbaa !31
  %130 = sext i32 %129 to i64
  %131 = getelementptr inbounds i32, ptr %128, i64 %130
  store i32 %127, ptr %131, align 4, !tbaa !31
  br label %163

132:                                              ; preds = %86
  %133 = load double, ptr %32, align 8, !tbaa !55
  %134 = fcmp nsz olt double %133, 0xC1E0000000000000
  br i1 %134, label %135, label %143

135:                                              ; preds = %132
  %136 = load ptr, ptr %13, align 8, !tbaa !82
  %137 = load i32, ptr %136, align 4, !tbaa !31
  %138 = add nsw i32 %137, 1
  store i32 %138, ptr %136, align 4, !tbaa !31
  %139 = load ptr, ptr %16, align 8, !tbaa !82
  %140 = load i32, ptr %33, align 4, !tbaa !31
  %141 = sext i32 %140 to i64
  %142 = getelementptr inbounds i32, ptr %139, i64 %141
  store i32 -2147483648, ptr %142, align 4, !tbaa !31
  br label %162

143:                                              ; preds = %132
  %144 = load double, ptr %32, align 8, !tbaa !55
  %145 = fcmp nsz ogt double %144, 0x41DFFFFFFFC00000
  br i1 %145, label %146, label %154

146:                                              ; preds = %143
  %147 = load ptr, ptr %13, align 8, !tbaa !82
  %148 = load i32, ptr %147, align 4, !tbaa !31
  %149 = add nsw i32 %148, 1
  store i32 %149, ptr %147, align 4, !tbaa !31
  %150 = load ptr, ptr %16, align 8, !tbaa !82
  %151 = load i32, ptr %33, align 4, !tbaa !31
  %152 = sext i32 %151 to i64
  %153 = getelementptr inbounds i32, ptr %150, i64 %152
  store i32 2147483647, ptr %153, align 4, !tbaa !31
  br label %161

154:                                              ; preds = %143
  %155 = load double, ptr %32, align 8, !tbaa !55
  %156 = fptosi double %155 to i32
  %157 = load ptr, ptr %16, align 8, !tbaa !82
  %158 = load i32, ptr %33, align 4, !tbaa !31
  %159 = sext i32 %158 to i64
  %160 = getelementptr inbounds i32, ptr %157, i64 %159
  store i32 %156, ptr %160, align 4, !tbaa !31
  br label %161

161:                                              ; preds = %154, %146
  br label %162

162:                                              ; preds = %161, %135
  br label %163

163:                                              ; preds = %162, %125
  call void @llvm.lifetime.end.p0(i64 8, ptr %37) #11
  call void @llvm.lifetime.end.p0(i64 8, ptr %36) #11
  call void @llvm.lifetime.end.p0(i64 8, ptr %35) #11
  call void @llvm.lifetime.end.p0(i64 8, ptr %34) #11
  br label %164

164:                                              ; preds = %163
  %165 = load i32, ptr %33, align 4, !tbaa !31
  %166 = add nsw i32 %165, 1
  store i32 %166, ptr %33, align 4, !tbaa !31
  br label %81, !llvm.loop !100

167:                                              ; preds = %85
  %168 = load double, ptr %25, align 8, !tbaa !55
  %169 = load ptr, ptr %17, align 8, !tbaa !91
  %170 = getelementptr inbounds double, ptr %169, i64 0
  store double %168, ptr %170, align 8, !tbaa !55
  %171 = load double, ptr %26, align 8, !tbaa !55
  %172 = load ptr, ptr %17, align 8, !tbaa !91
  %173 = getelementptr inbounds double, ptr %172, i64 1
  store double %171, ptr %173, align 8, !tbaa !55
  %174 = load double, ptr %27, align 8, !tbaa !55
  %175 = load ptr, ptr %17, align 8, !tbaa !91
  %176 = getelementptr inbounds double, ptr %175, i64 2
  store double %174, ptr %176, align 8, !tbaa !55
  %177 = load double, ptr %28, align 8, !tbaa !55
  %178 = load ptr, ptr %17, align 8, !tbaa !91
  %179 = getelementptr inbounds double, ptr %178, i64 3
  store double %177, ptr %179, align 8, !tbaa !55
  call void @llvm.lifetime.end.p0(i64 8, ptr %32) #11
  call void @llvm.lifetime.end.p0(i64 8, ptr %31) #11
  call void @llvm.lifetime.end.p0(i64 8, ptr %30) #11
  call void @llvm.lifetime.end.p0(i64 8, ptr %29) #11
  call void @llvm.lifetime.end.p0(i64 8, ptr %28) #11
  call void @llvm.lifetime.end.p0(i64 8, ptr %27) #11
  call void @llvm.lifetime.end.p0(i64 8, ptr %26) #11
  call void @llvm.lifetime.end.p0(i64 8, ptr %25) #11
  call void @llvm.lifetime.end.p0(i64 8, ptr %24) #11
  call void @llvm.lifetime.end.p0(i64 8, ptr %23) #11
  call void @llvm.lifetime.end.p0(i64 8, ptr %22) #11
  call void @llvm.lifetime.end.p0(i64 8, ptr %21) #11
  call void @llvm.lifetime.end.p0(i64 8, ptr %20) #11
  call void @llvm.lifetime.end.p0(i64 8, ptr %19) #11
  call void @llvm.lifetime.end.p0(i64 8, ptr %18) #11
  call void @llvm.lifetime.end.p0(i64 8, ptr %17) #11
  call void @llvm.lifetime.end.p0(i64 8, ptr %16) #11
  call void @llvm.lifetime.end.p0(i64 8, ptr %15) #11
  ret void
}