; Function Attrs: nofree norecurse nosync nounwind memory(argmem: readwrite) uwtable
define internal void @biquad_tdi_s32(ptr noundef readonly captures(none) %0, ptr noundef readonly captures(none) %1, ptr noundef writeonly captures(none) %2, i32 noundef %3, ptr noundef captures(none) %4, ptr noundef captures(none) %5, i32 noundef %6) #7 {
  %8 = getelementptr inbounds nuw i8, ptr %0, i64 136
  %9 = getelementptr inbounds nuw i8, ptr %0, i64 120
  %10 = load double, ptr %9, align 8, !tbaa !53
  %11 = fneg nsz double %10
  %12 = getelementptr inbounds nuw i8, ptr %0, i64 128
  %13 = load double, ptr %12, align 8, !tbaa !53
  %14 = fneg nsz double %13
  %15 = load double, ptr %8, align 8, !tbaa !53
  %16 = getelementptr inbounds nuw i8, ptr %0, i64 144
  %17 = load double, ptr %16, align 8, !tbaa !53
  %18 = getelementptr inbounds nuw i8, ptr %0, i64 152
  %19 = load double, ptr %18, align 8, !tbaa !53
  %20 = load double, ptr %4, align 8, !tbaa !53
  %21 = getelementptr inbounds nuw i8, ptr %4, i64 8
  %22 = load double, ptr %21, align 8, !tbaa !53
  %23 = getelementptr inbounds nuw i8, ptr %4, i64 16
  %24 = load double, ptr %23, align 8, !tbaa !53
  %25 = getelementptr inbounds nuw i8, ptr %4, i64 24
  %26 = load double, ptr %25, align 8, !tbaa !53
  %27 = getelementptr inbounds nuw i8, ptr %0, i64 64
  %28 = load double, ptr %27, align 8, !tbaa !75
  %29 = fsub nsz double 1.000000e+00, %28
  %30 = icmp sgt i32 %3, 0
  br i1 %30, label %.lr.ph, label %._crit_edge

.lr.ph:                                           ; preds = %7
  %.not = icmp eq i32 %6, 0
  %wide.trip.count92 = zext nneg i32 %3 to i64
  br i1 %.not, label %.lr.ph.split.us, label %.lr.ph.split

.lr.ph.split.us:                                  ; preds = %.lr.ph, %53
  %indvars.iv89 = phi i64 [ %indvars.iv.next90, %53 ], [ 0, %.lr.ph ]
  %.074.us = phi double [ %35, %53 ], [ %20, %.lr.ph ]
  %.06573.us = phi double [ %36, %53 ], [ %22, %.lr.ph ]
  %.06672.us = phi double [ %37, %53 ], [ %24, %.lr.ph ]
  %.06771.us = phi double [ %38, %53 ], [ %26, %.lr.ph ]
  %31 = getelementptr inbounds nuw i32, ptr %1, i64 %indvars.iv89
  %32 = load i32, ptr %31, align 4, !tbaa !30
  %33 = sitofp i32 %32 to double
  %34 = fadd nsz double %.074.us, %33
  %35 = tail call nsz double @llvm.fmuladd.f64(double %34, double %11, double %.06573.us)
  %36 = fmul nsz double %34, %14
  %37 = tail call nsz double @llvm.fmuladd.f64(double %34, double %17, double %.06771.us)
  %38 = fmul nsz double %19, %34
  %39 = tail call nsz double @llvm.fmuladd.f64(double %15, double %34, double %.06672.us)
  %40 = fmul nsz double %29, %34
  %41 = tail call nsz double @llvm.fmuladd.f64(double %39, double %28, double %40)
  %42 = fcmp nsz olt double %41, 0xC1E0000000000000
  br i1 %42, label %50, label %43

43:                                               ; preds = %.lr.ph.split.us
  %44 = fcmp nsz ogt double %41, 0x41DFFFFFFFC00000
  br i1 %44, label %47, label %45

45:                                               ; preds = %43
  %46 = fptosi double %41 to i32
  br label %53

47:                                               ; preds = %43
  %48 = load i32, ptr %5, align 4, !tbaa !30
  %49 = add nsw i32 %48, 1
  store i32 %49, ptr %5, align 4, !tbaa !30
  br label %53

50:                                               ; preds = %.lr.ph.split.us
  %51 = load i32, ptr %5, align 4, !tbaa !30
  %52 = add nsw i32 %51, 1
  store i32 %52, ptr %5, align 4, !tbaa !30
  br label %53

53:                                               ; preds = %50, %47, %45
  %.sink = phi i32 [ -2147483648, %50 ], [ 2147483647, %47 ], [ %46, %45 ]
  %54 = getelementptr inbounds nuw i32, ptr %2, i64 %indvars.iv89
  store i32 %.sink, ptr %54, align 4, !tbaa !30
  %indvars.iv.next90 = add nuw nsw i64 %indvars.iv89, 1
  %exitcond93.not = icmp eq i64 %indvars.iv.next90, %wide.trip.count92
  br i1 %exitcond93.not, label %._crit_edge, label %.lr.ph.split.us, !llvm.loop !87

._crit_edge.split:                                ; preds = %.lr.ph.split
  %55 = tail call nsz double @llvm.fmuladd.f64(double %59, double %17, double %.06771)
  br label %._crit_edge

._crit_edge:                                      ; preds = %53, %._crit_edge.split, %7
  %.067.lcssa = phi double [ %26, %7 ], [ %62, %._crit_edge.split ], [ %38, %53 ]
  %.066.lcssa = phi double [ %24, %7 ], [ %55, %._crit_edge.split ], [ %37, %53 ]
  %.065.lcssa = phi double [ %22, %7 ], [ %61, %._crit_edge.split ], [ %36, %53 ]
  %.0.lcssa = phi double [ %20, %7 ], [ %60, %._crit_edge.split ], [ %35, %53 ]
  store double %.0.lcssa, ptr %4, align 8, !tbaa !53
  store double %.065.lcssa, ptr %21, align 8, !tbaa !53
  store double %.066.lcssa, ptr %23, align 8, !tbaa !53
  store double %.067.lcssa, ptr %25, align 8, !tbaa !53
  ret void

.lr.ph.split:                                     ; preds = %.lr.ph, %.lr.ph.split
  %indvars.iv = phi i64 [ %indvars.iv.next, %.lr.ph.split ], [ 0, %.lr.ph ]
  %.074 = phi double [ %60, %.lr.ph.split ], [ %20, %.lr.ph ]
  %.06573 = phi double [ %61, %.lr.ph.split ], [ %22, %.lr.ph ]
  %.06771 = phi double [ %62, %.lr.ph.split ], [ %26, %.lr.ph ]
  %56 = getelementptr inbounds nuw i32, ptr %1, i64 %indvars.iv
  %57 = load i32, ptr %56, align 4, !tbaa !30
  %58 = sitofp i32 %57 to double
  %59 = fadd nsz double %.074, %58
  %60 = tail call nsz double @llvm.fmuladd.f64(double %59, double %11, double %.06573)
  %61 = fmul nsz double %59, %14
  %62 = fmul nsz double %19, %59
  %63 = fptosi double %59 to i32
  %64 = getelementptr inbounds nuw i32, ptr %2, i64 %indvars.iv
  store i32 %63, ptr %64, align 4, !tbaa !30
  %indvars.iv.next = add nuw nsw i64 %indvars.iv, 1
  %exitcond.not = icmp eq i64 %indvars.iv.next, %wide.trip.count92
  br i1 %exitcond.not, label %._crit_edge.split, label %.lr.ph.split, !llvm.loop !87
}